; Function Attrs: mustprogress uwtable
define void @_ZN18grpc_channel_stack19InitClientCallSpineEPN9grpc_core18CallSpineInterfaceE(ptr noundef nonnull align 8 dereferenceable(104) %this, ptr noundef %call) local_unnamed_addr #6 align 2 {
entry:
  %count = getelementptr inbounds i8, ptr %this, i64 40
  %0 = load i64, ptr %count, align 8
  %cmp4.not = icmp eq i64 %0, 0
  br i1 %cmp4.not, label %for.end, label %for.body.lr.ph

for.body.lr.ph:                                   ; preds = %entry
  %add.ptr.i = getelementptr inbounds i8, ptr %this, i64 112
  br label %for.body

for.body:                                         ; preds = %for.body.lr.ph, %for.body
  %i.05 = phi i64 [ 0, %for.body.lr.ph ], [ %inc, %for.body ]
  %add.ptr1.i = getelementptr inbounds %struct.grpc_channel_element, ptr %add.ptr.i, i64 %i.05
  %1 = load ptr, ptr %add.ptr1.i, align 8
  %init_call = getelementptr inbounds i8, ptr %1, i64 16
  %2 = load ptr, ptr %init_call, align 8
  tail call void %2(ptr noundef nonnull %add.ptr1.i, ptr noundef %call)
  %inc = add nuw i64 %i.05, 1
  %3 = load i64, ptr %count, align 8
  %cmp = icmp ult i64 %inc, %3
  br i1 %cmp, label %for.body, label %for.end, !llvm.loop !26

for.end:                                          ; preds = %for.body, %entry
  ret void
}